target datalayout = "e-m:e-p270:32:32-p271:32:32-p272:64:64-i64:64-i128:128-f80:128-n8:16:32:64-S128"
target triple = "x86_64-pc-linux-gnu"

%struct.WalWriteMethod = type { ptr, i32, i32, i8, ptr, i32 }
%struct.TarMethodData = type { %struct.WalWriteMethod, ptr, i32, ptr, ptr, ptr }
%struct.z_stream_s = type { ptr, i32, i64, ptr, i32, i64, ptr, ptr, ptr, ptr, ptr, i32, i64, i64 }

@.str.15 = private unnamed_addr constant [24 x i8] c"could not compress data\00", align 1
@.str.16 = private unnamed_addr constant [35 x i8] c"could not reset compression stream\00", align 1

; Function Attrs: nounwind uwtable
define internal zeroext i1 @tar_write_compressed_data(ptr noundef %0, ptr noundef %1, i64 noundef %2, i1 noundef zeroext %3) #0 {
  %5 = alloca i1, align 1
  %6 = alloca ptr, align 8
  %7 = alloca ptr, align 8
  %8 = alloca i64, align 8
  %9 = alloca i8, align 1
  %10 = alloca i32, align 4
  %11 = alloca i32, align 4
  %12 = alloca i64, align 8
  store ptr %0, ptr %6, align 8
  store ptr %1, ptr %7, align 8
  store i64 %2, ptr %8, align 8
  %13 = zext i1 %3 to i8
  store i8 %13, ptr %9, align 1
  %14 = load ptr, ptr %7, align 8
  %15 = load ptr, ptr %6, align 8
  %16 = getelementptr inbounds nuw %struct.TarMethodData, ptr %15, i32 0, i32 4
  %17 = load ptr, ptr %16, align 8
  %18 = getelementptr inbounds nuw %struct.z_stream_s, ptr %17, i32 0, i32 0
  store ptr %14, ptr %18, align 8
  %19 = load i64, ptr %8, align 8
  %20 = trunc i64 %19 to i32
  %21 = load ptr, ptr %6, align 8
  %22 = getelementptr inbounds nuw %struct.TarMethodData, ptr %21, i32 0, i32 4
  %23 = load ptr, ptr %22, align 8
  %24 = getelementptr inbounds nuw %struct.z_stream_s, ptr %23, i32 0, i32 1
  store i32 %20, ptr %24, align 8
  br label %25

25:                                               ; preds = %112, %4
  %26 = load ptr, ptr %6, align 8
  %27 = getelementptr inbounds nuw %struct.TarMethodData, ptr %26, i32 0, i32 4
  %28 = load ptr, ptr %27, align 8
  %29 = getelementptr inbounds nuw %struct.z_stream_s, ptr %28, i32 0, i32 1
  %30 = load i32, ptr %29, align 8
  %31 = icmp ne i32 %30, 0
  br i1 %31, label %35, label %32

32:                                               ; preds = %25
  %33 = load i8, ptr %9, align 1, !range !4, !noundef !5
  %34 = trunc i8 %33 to i1
  br label %35

35:                                               ; preds = %32, %25
  %36 = phi i1 [ true, %25 ], [ %34, %32 ]
  br i1 %36, label %37, label %113

37:                                               ; preds = %35
  call void @llvm.lifetime.start.p0(i64 4, ptr %10) #9
  %38 = load ptr, ptr %6, align 8
  %39 = getelementptr inbounds nuw %struct.TarMethodData, ptr %38, i32 0, i32 4
  %40 = load ptr, ptr %39, align 8
  %41 = load i8, ptr %9, align 1, !range !4, !noundef !5
  %42 = trunc i8 %41 to i1
  %43 = select i1 %42, i32 4, i32 0
  %44 = call i32 @deflate(ptr noundef %40, i32 noundef %43)
  store i32 %44, ptr %10, align 4
  %45 = load i32, ptr %10, align 4
  %46 = icmp eq i32 %45, -2
  br i1 %46, label %47, label %51

47:                                               ; preds = %37
  %48 = load ptr, ptr %6, align 8
  %49 = getelementptr inbounds nuw %struct.TarMethodData, ptr %48, i32 0, i32 0
  %50 = getelementptr inbounds nuw %struct.WalWriteMethod, ptr %49, i32 0, i32 4
  store ptr @.str.15, ptr %50, align 8
  store i1 false, ptr %5, align 1
  store i32 1, ptr %11, align 4
  br label %110

51:                                               ; preds = %37
  %52 = load ptr, ptr %6, align 8
  %53 = getelementptr inbounds nuw %struct.TarMethodData, ptr %52, i32 0, i32 4
  %54 = load ptr, ptr %53, align 8
  %55 = getelementptr inbounds nuw %struct.z_stream_s, ptr %54, i32 0, i32 4
  %56 = load i32, ptr %55, align 8
  %57 = icmp ult i32 %56, 4096
  br i1 %57, label %58, label %105

58:                                               ; preds = %51
  call void @llvm.lifetime.start.p0(i64 8, ptr %12) #9
  %59 = load ptr, ptr %6, align 8
  %60 = getelementptr inbounds nuw %struct.TarMethodData, ptr %59, i32 0, i32 4
  %61 = load ptr, ptr %60, align 8
  %62 = getelementptr inbounds nuw %struct.z_stream_s, ptr %61, i32 0, i32 4
  %63 = load i32, ptr %62, align 8
  %64 = sub i32 4096, %63
  %65 = zext i32 %64 to i64
  store i64 %65, ptr %12, align 8
  %66 = call ptr @__errno_location() #11
  store i32 0, ptr %66, align 4
  %67 = load ptr, ptr %6, align 8
  %68 = getelementptr inbounds nuw %struct.TarMethodData, ptr %67, i32 0, i32 2
  %69 = load i32, ptr %68, align 8
  %70 = load ptr, ptr %6, align 8
  %71 = getelementptr inbounds nuw %struct.TarMethodData, ptr %70, i32 0, i32 5
  %72 = load ptr, ptr %71, align 8
  %73 = load i64, ptr %12, align 8
  %74 = call i64 @write(i32 noundef %69, ptr noundef %72, i64 noundef %73)
  %75 = load i64, ptr %12, align 8
  %76 = icmp ne i64 %74, %75
  br i1 %76, label %77, label %90

77:                                               ; preds = %58
  %78 = call ptr @__errno_location() #11
  %79 = load i32, ptr %78, align 4
  %80 = icmp ne i32 %79, 0
  br i1 %80, label %81, label %84

81:                                               ; preds = %77
  %82 = call ptr @__errno_location() #11
  %83 = load i32, ptr %82, align 4
  br label %85

84:                                               ; preds = %77
  br label %85

85:                                               ; preds = %84, %81
  %86 = phi i32 [ %83, %81 ], [ 28, %84 ]
  %87 = load ptr, ptr %6, align 8
  %88 = getelementptr inbounds nuw %struct.TarMethodData, ptr %87, i32 0, i32 0
  %89 = getelementptr inbounds nuw %struct.WalWriteMethod, ptr %88, i32 0, i32 5
  store i32 %86, ptr %89, align 8
  store i1 false, ptr %5, align 1
  store i32 1, ptr %11, align 4
  br label %102

90:                                               ; preds = %58
  %91 = load ptr, ptr %6, align 8
  %92 = getelementptr inbounds nuw %struct.TarMethodData, ptr %91, i32 0, i32 5
  %93 = load ptr, ptr %92, align 8
  %94 = load ptr, ptr %6, align 8
  %95 = getelementptr inbounds nuw %struct.TarMethodData, ptr %94, i32 0, i32 4
  %96 = load ptr, ptr %95, align 8
  %97 = getelementptr inbounds nuw %struct.z_stream_s, ptr %96, i32 0, i32 3
  store ptr %93, ptr %97, align 8
  %98 = load ptr, ptr %6, align 8
  %99 = getelementptr inbounds nuw %struct.TarMethodData, ptr %98, i32 0, i32 4
  %100 = load ptr, ptr %99, align 8
  %101 = getelementptr inbounds nuw %struct.z_stream_s, ptr %100, i32 0, i32 4
  store i32 4096, ptr %101, align 8
  store i32 0, ptr %11, align 4
  br label %102

102:                                              ; preds = %90, %85
  call void @llvm.lifetime.end.p0(i64 8, ptr %12) #9
  %103 = load i32, ptr %11, align 4
  switch i32 %103, label %110 [
    i32 0, label %104
  ]

104:                                              ; preds = %102
  br label %105

105:                                              ; preds = %104, %51
  %106 = load i32, ptr %10, align 4
  %107 = icmp eq i32 %106, 1
  br i1 %107, label %108, label %109

108:                                              ; preds = %105
  store i32 3, ptr %11, align 4
  br label %110

109:                                              ; preds = %105
  store i32 0, ptr %11, align 4
  br label %110

110:                                              ; preds = %109, %108, %102, %47
  call void @llvm.lifetime.end.p0(i64 4, ptr %10) #9
  %111 = load i32, ptr %11, align 4
  switch i32 %111, label %130 [
    i32 0, label %112
    i32 1, label %128
    i32 3, label %113
  ]

112:                                              ; preds = %110
  br label %25, !llvm.loop !6

113:                                              ; preds = %110, %35
  %114 = load i8, ptr %9, align 1, !range !4, !noundef !5
  %115 = trunc i8 %114 to i1
  br i1 %115, label %116, label %127

116:                                              ; preds = %113
  %117 = load ptr, ptr %6, align 8
  %118 = getelementptr inbounds nuw %struct.TarMethodData, ptr %117, i32 0, i32 4
  %119 = load ptr, ptr %118, align 8
  %120 = call i32 @deflateReset(ptr noundef %119)
  %121 = icmp ne i32 %120, 0
  br i1 %121, label %122, label %126

122:                                              ; preds = %116
  %123 = load ptr, ptr %6, align 8
  %124 = getelementptr inbounds nuw %struct.TarMethodData, ptr %123, i32 0, i32 0
  %125 = getelementptr inbounds nuw %struct.WalWriteMethod, ptr %124, i32 0, i32 4
  store ptr @.str.16, ptr %125, align 8
  store i1 false, ptr %5, align 1
  br label %128

126:                                              ; preds = %116
  br label %127

127:                                              ; preds = %126, %113
  store i1 true, ptr %5, align 1
  br label %128

128:                                              ; preds = %127, %122, %110
  %129 = load i1, ptr %5, align 1
  ret i1 %129

130:                                              ; preds = %110
  unreachable
}