; Function Attrs: nounwind uwtable
define internal fastcc noundef zeroext i1 @tar_write_compressed_data(ptr noundef captures(none) %0, ptr noundef %1, i64 noundef %2, i1 noundef zeroext %3) unnamed_addr #0 {
  %5 = getelementptr inbounds nuw i8, ptr %0, i64 64
  %6 = load ptr, ptr %5, align 8
  store ptr %1, ptr %6, align 8
  %7 = trunc i64 %2 to i32
  %8 = load ptr, ptr %5, align 8
  %9 = getelementptr inbounds nuw i8, ptr %8, i64 8
  store i32 %7, ptr %9, align 8
  %10 = select i1 %3, i32 4, i32 0
  %11 = getelementptr inbounds nuw i8, ptr %0, i64 48
  %12 = getelementptr inbounds nuw i8, ptr %0, i64 72
  br i1 %3, label %.split.us, label %.split

.split.us:                                        ; preds = %4, %33
  %13 = load ptr, ptr %5, align 8
  %14 = tail call i32 @deflate(ptr noundef nonnull %13, i32 noundef %10) #12
  %15 = icmp eq i32 %14, -2
  br i1 %15, label %.split38.us, label %16

16:                                               ; preds = %.split.us
  %17 = load ptr, ptr %5, align 8
  %18 = getelementptr inbounds nuw i8, ptr %17, i64 32
  %19 = load i32, ptr %18, align 8
  %20 = icmp ult i32 %19, 4096
  br i1 %20, label %21, label %33

21:                                               ; preds = %16
  %22 = sub nuw nsw i32 4096, %19
  %23 = zext nneg i32 %22 to i64
  %24 = tail call ptr @__errno_location() #14
  store i32 0, ptr %24, align 4
  %25 = load i32, ptr %11, align 8
  %26 = load ptr, ptr %12, align 8
  %27 = tail call i64 @write(i32 noundef %25, ptr noundef %26, i64 noundef %23) #12
  %.not.us = icmp eq i64 %27, %23
  br i1 %.not.us, label %.thread.us, label %.split40.us

.thread.us:                                       ; preds = %21
  %28 = load ptr, ptr %12, align 8
  %29 = load ptr, ptr %5, align 8
  %30 = getelementptr inbounds nuw i8, ptr %29, i64 24
  store ptr %28, ptr %30, align 8
  %31 = load ptr, ptr %5, align 8
  %32 = getelementptr inbounds nuw i8, ptr %31, i64 32
  store i32 4096, ptr %32, align 8
  br label %33

33:                                               ; preds = %.thread.us, %16
  %34 = icmp eq i32 %14, 1
  br i1 %34, label %.thread35, label %.split.us

.split:                                           ; preds = %4, %61
  %35 = load ptr, ptr %5, align 8
  %36 = getelementptr inbounds nuw i8, ptr %35, i64 8
  %37 = load i32, ptr %36, align 8
  %.not41 = icmp eq i32 %37, 0
  br i1 %.not41, label %.thread35, label %38

38:                                               ; preds = %.split
  %39 = tail call i32 @deflate(ptr noundef nonnull %35, i32 noundef %10) #12
  %40 = icmp eq i32 %39, -2
  br i1 %40, label %.split38.us, label %42

.split38.us:                                      ; preds = %38, %.split.us
  %41 = getelementptr inbounds nuw i8, ptr %0, i64 24
  store ptr @.str.15, ptr %41, align 8
  br label %.thread33

42:                                               ; preds = %38
  %43 = load ptr, ptr %5, align 8
  %44 = getelementptr inbounds nuw i8, ptr %43, i64 32
  %45 = load i32, ptr %44, align 8
  %46 = icmp ult i32 %45, 4096
  br i1 %46, label %47, label %61

47:                                               ; preds = %42
  %48 = sub nuw nsw i32 4096, %45
  %49 = zext nneg i32 %48 to i64
  %50 = tail call ptr @__errno_location() #14
  store i32 0, ptr %50, align 4
  %51 = load i32, ptr %11, align 8
  %52 = load ptr, ptr %12, align 8
  %53 = tail call i64 @write(i32 noundef %51, ptr noundef %52, i64 noundef %49) #12
  %.not = icmp eq i64 %53, %49
  br i1 %.not, label %.thread, label %.split40.us

.thread:                                          ; preds = %47
  %54 = load ptr, ptr %12, align 8
  %55 = load ptr, ptr %5, align 8
  %56 = getelementptr inbounds nuw i8, ptr %55, i64 24
  store ptr %54, ptr %56, align 8
  %57 = load ptr, ptr %5, align 8
  %58 = getelementptr inbounds nuw i8, ptr %57, i64 32
  store i32 4096, ptr %58, align 8
  br label %61

.split40.us:                                      ; preds = %47, %21
  %.us-phi = phi ptr [ %24, %21 ], [ %50, %47 ]
  %59 = load i32, ptr %.us-phi, align 4
  %.not31 = icmp eq i32 %59, 0
  %spec.select = select i1 %.not31, i32 28, i32 %59
  %60 = getelementptr inbounds nuw i8, ptr %0, i64 32
  store i32 %spec.select, ptr %60, align 8
  br label %.thread33

61:                                               ; preds = %.thread, %42
  %62 = icmp eq i32 %39, 1
  br i1 %62, label %.thread35, label %.split

.thread35:                                        ; preds = %.split, %61, %33
  br i1 %3, label %63, label %.thread33

63:                                               ; preds = %.thread35
  %64 = load ptr, ptr %5, align 8
  %65 = tail call i32 @deflateReset(ptr noundef %64) #12
  %.not32 = icmp eq i32 %65, 0
  br i1 %.not32, label %.thread33, label %66

66:                                               ; preds = %63
  %67 = getelementptr inbounds nuw i8, ptr %0, i64 24
  store ptr @.str.16, ptr %67, align 8
  br label %.thread33

.thread33:                                        ; preds = %.split40.us, %.split38.us, %.thread35, %63, %66
  %.4 = phi i1 [ false, %66 ], [ true, %63 ], [ true, %.thread35 ], [ false, %.split38.us ], [ false, %.split40.us ]
  ret i1 %.4
}